target datalayout = "e-m:e-p270:32:32-p271:32:32-p272:64:64-i64:64-i128:128-f80:128-n8:16:32:64-S128"
target triple = "x86_64-pc-linux-gnu"

%struct.t_acf = type { i64, i32, i32, i32, i32, i8, i8, float, float }
%struct.t_pargs = type { ptr, i8, i32, %union.anon.10, ptr }
%union.anon.10 = type { ptr }

@_ZL3acf = internal global %struct.t_acf zeroinitializer, align 8
@.str = private unnamed_addr constant [139 x i8] c"generated/home/dtcxzyw/WorkSpace/Projects/compilers/llvm-opt-benchmark/bench/gromacs/gromacs/src/gromacs/correlationfunctions/autocorr.cpp\00", align 1
@.str.61 = private unnamed_addr constant [4 x i8] c"ppa\00", align 1
@_ZL8bACFinit = internal global i8 0, align 1

; Function Attrs: mustprogress uwtable
define internal void @_ZL13gmx_snew_implI7t_pargsEvPKcS2_iRPT_m(ptr noundef %0, ptr noundef %1, i32 noundef %2, ptr noundef nonnull align 8 dereferenceable(8) %3, i64 noundef %4) #0 {
  %6 = alloca ptr, align 8
  %7 = alloca ptr, align 8
  %8 = alloca i32, align 4
  %9 = alloca ptr, align 8
  %10 = alloca i64, align 8
  store ptr %0, ptr %6, align 8
  store ptr %1, ptr %7, align 8
  store i32 %2, ptr %8, align 4
  store ptr %3, ptr %9, align 8
  store i64 %4, ptr %10, align 8
  %11 = load ptr, ptr %6, align 8
  %12 = load ptr, ptr %7, align 8
  %13 = load i32, ptr %8, align 4
  %14 = load i64, ptr %10, align 8
  %15 = call noundef ptr @_Z11save_callocPKcS0_imm(ptr noundef %11, ptr noundef %12, i32 noundef %13, i64 noundef %14, i64 noundef 32)
  %16 = load ptr, ptr %9, align 8
  store ptr %15, ptr %16, align 8
  ret void
}

; Function Attrs: mustprogress nounwind uwtable
define linkonce_odr noundef i32 @_Z5asizeI7t_pargsLi8EEiRAT0__T_(ptr noundef nonnull align 8 dereferenceable(256) %0) #2 comdat {
  %2 = alloca ptr, align 8
  store ptr %0, ptr %2, align 8
  ret i32 8
}

; Function Attrs: mustprogress uwtable
define noundef ptr @_Z13add_acf_pargsPiP7t_pargs(ptr noundef %0, ptr noundef %1) #0 {
  %3 = alloca ptr, align 8
  %4 = alloca ptr, align 8
  %5 = alloca [8 x %struct.t_pargs], align 16
  %6 = alloca ptr, align 8
  %7 = alloca i32, align 4
  %8 = alloca i32, align 4
  store ptr %0, ptr %3, align 8
  store ptr %1, ptr %4, align 8
  call void @llvm.memcpy.p0.p0.i64(ptr align 16 %5, ptr align 16 @__const._Z13add_acf_pargsPiP7t_pargs.acfpa, i64 256, i1 false)
  %9 = call noundef i32 @_Z5asizeI7t_pargsLi8EEiRAT0__T_(ptr noundef nonnull align 8 dereferenceable(256) %5)
  store i32 %9, ptr %8, align 4
  %10 = load ptr, ptr %3, align 8
  %11 = load i32, ptr %10, align 4
  %12 = load i32, ptr %8, align 4
  %13 = add nsw i32 %11, %12
  %14 = sext i32 %13 to i64
  call void @_ZL13gmx_snew_implI7t_pargsEvPKcS2_iRPT_m(ptr noundef @.str.61, ptr noundef @.str, i32 noundef 760, ptr noundef nonnull align 8 dereferenceable(8) %6, i64 noundef %14)
  store i32 0, ptr %7, align 4
  br label %15

15:                                               ; preds = %29, %2
  %16 = load i32, ptr %7, align 4
  %17 = load ptr, ptr %3, align 8
  %18 = load i32, ptr %17, align 4
  %19 = icmp slt i32 %16, %18
  br i1 %19, label %20, label %32

20:                                               ; preds = %15
  %21 = load ptr, ptr %4, align 8
  %22 = load i32, ptr %7, align 4
  %23 = sext i32 %22 to i64
  %24 = getelementptr inbounds %struct.t_pargs, ptr %21, i64 %23
  %25 = load ptr, ptr %6, align 8
  %26 = load i32, ptr %7, align 4
  %27 = sext i32 %26 to i64
  %28 = getelementptr inbounds %struct.t_pargs, ptr %25, i64 %27
  call void @llvm.memcpy.p0.p0.i64(ptr align 8 %28, ptr align 8 %24, i64 32, i1 false)
  br label %29

29:                                               ; preds = %20
  %30 = load i32, ptr %7, align 4
  %31 = add nsw i32 %30, 1
  store i32 %31, ptr %7, align 4
  br label %15, !llvm.loop !47

32:                                               ; preds = %15
  store i32 0, ptr %7, align 4
  br label %33

33:                                               ; preds = %48, %32
  %34 = load i32, ptr %7, align 4
  %35 = load i32, ptr %8, align 4
  %36 = icmp slt i32 %34, %35
  br i1 %36, label %37, label %51

37:                                               ; preds = %33
  %38 = load i32, ptr %7, align 4
  %39 = sext i32 %38 to i64
  %40 = getelementptr inbounds [8 x %struct.t_pargs], ptr %5, i64 0, i64 %39
  %41 = load ptr, ptr %6, align 8
  %42 = load ptr, ptr %3, align 8
  %43 = load i32, ptr %42, align 4
  %44 = load i32, ptr %7, align 4
  %45 = add nsw i32 %43, %44
  %46 = sext i32 %45 to i64
  %47 = getelementptr inbounds %struct.t_pargs, ptr %41, i64 %46
  call void @llvm.memcpy.p0.p0.i64(ptr align 8 %47, ptr align 16 %40, i64 32, i1 false)
  br label %48

48:                                               ; preds = %37
  %49 = load i32, ptr %7, align 4
  %50 = add nsw i32 %49, 1
  store i32 %50, ptr %7, align 4
  br label %33, !llvm.loop !48

51:                                               ; preds = %33
  %52 = load i32, ptr %8, align 4
  %53 = load ptr, ptr %3, align 8
  %54 = load i32, ptr %53, align 4
  %55 = add nsw i32 %54, %52
  store i32 %55, ptr %53, align 4
  store i64 0, ptr @_ZL3acf, align 8
  store i32 1, ptr getelementptr inbounds (%struct.t_acf, ptr @_ZL3acf, i32 0, i32 1), align 8
  store i32 -1, ptr getelementptr inbounds (%struct.t_acf, ptr @_ZL3acf, i32 0, i32 2), align 4
  store i32 0, ptr getelementptr inbounds (%struct.t_acf, ptr @_ZL3acf, i32 0, i32 3), align 8
  store i32 1, ptr getelementptr inbounds (%struct.t_acf, ptr @_ZL3acf, i32 0, i32 4), align 4
  store i8 1, ptr getelementptr inbounds (%struct.t_acf, ptr @_ZL3acf, i32 0, i32 5), align 8
  store i8 1, ptr getelementptr inbounds (%struct.t_acf, ptr @_ZL3acf, i32 0, i32 6), align 1
  store float 0.000000e+00, ptr getelementptr inbounds (%struct.t_acf, ptr @_ZL3acf, i32 0, i32 7), align 4
  store float -1.000000e+00, ptr getelementptr inbounds (%struct.t_acf, ptr @_ZL3acf, i32 0, i32 8), align 8
  store i8 1, ptr @_ZL8bACFinit, align 1
  %56 = load ptr, ptr %6, align 8
  ret ptr %56
}