; Function Attrs: mustprogress uwtable
define noundef ptr @_Z13add_acf_pargsPiP7t_pargs(ptr nocapture noundef %0, ptr nocapture noundef readonly %1) local_unnamed_addr #0 {
  %3 = load i32, ptr %0, align 4
  %4 = add nsw i32 %3, 8
  %5 = sext i32 %4 to i64
  %6 = tail call noundef ptr @_Z11save_callocPKcS0_imm(ptr noundef nonnull @.str.61, ptr noundef nonnull @.str, i32 noundef 760, i64 noundef %5, i64 noundef 32)
  %7 = load i32, ptr %0, align 4
  %8 = icmp sgt i32 %7, 0
  br i1 %8, label %.lr.ph, label %.preheader.preheader

.lr.ph:                                           ; preds = %2, %.lr.ph
  %indvars.iv = phi i64 [ %indvars.iv.next, %.lr.ph ], [ 0, %2 ]
  %9 = getelementptr inbounds %struct.t_pargs, ptr %1, i64 %indvars.iv
  %10 = getelementptr inbounds %struct.t_pargs, ptr %6, i64 %indvars.iv
  tail call void @llvm.memcpy.p0.p0.i64(ptr noundef nonnull align 8 dereferenceable(32) %10, ptr noundef nonnull align 8 dereferenceable(32) %9, i64 32, i1 false)
  %indvars.iv.next = add nuw nsw i64 %indvars.iv, 1
  %11 = load i32, ptr %0, align 4
  %12 = sext i32 %11 to i64
  %13 = icmp slt i64 %indvars.iv.next, %12
  br i1 %13, label %.lr.ph, label %.preheader.preheader, !llvm.loop !39

.preheader.preheader:                             ; preds = %.lr.ph, %2
  br label %.preheader

.preheader:                                       ; preds = %.preheader.preheader, %.preheader
  %indvars.iv21 = phi i64 [ %indvars.iv.next22, %.preheader ], [ 0, %.preheader.preheader ]
  %14 = getelementptr inbounds [8 x %struct.t_pargs], ptr @__const._Z13add_acf_pargsPiP7t_pargs.acfpa, i64 0, i64 %indvars.iv21
  %15 = load i32, ptr %0, align 4
  %16 = trunc nuw nsw i64 %indvars.iv21 to i32
  %17 = add nsw i32 %15, %16
  %18 = sext i32 %17 to i64
  %19 = getelementptr inbounds %struct.t_pargs, ptr %6, i64 %18
  tail call void @llvm.memcpy.p0.p0.i64(ptr noundef nonnull align 8 dereferenceable(32) %19, ptr noundef nonnull align 16 dereferenceable(32) %14, i64 32, i1 false)
  %indvars.iv.next22 = add nuw nsw i64 %indvars.iv21, 1
  %exitcond.not = icmp eq i64 %indvars.iv.next22, 8
  br i1 %exitcond.not, label %20, label %.preheader, !llvm.loop !40

20:                                               ; preds = %.preheader
  %21 = load i32, ptr %0, align 4
  %22 = add nsw i32 %21, 8
  store i32 %22, ptr %0, align 4
  store i64 0, ptr @_ZL3acf, align 8
  store <4 x i32> <i32 1, i32 -1, i32 0, i32 1>, ptr getelementptr inbounds (%struct.t_acf, ptr @_ZL3acf, i64 0, i32 1), align 8
  store i8 1, ptr getelementptr inbounds (%struct.t_acf, ptr @_ZL3acf, i64 0, i32 5), align 8
  store i8 1, ptr getelementptr inbounds (%struct.t_acf, ptr @_ZL3acf, i64 0, i32 6), align 1
  store <2 x float> <float 0.000000e+00, float -1.000000e+00>, ptr getelementptr inbounds (%struct.t_acf, ptr @_ZL3acf, i64 0, i32 7), align 4
  store i1 true, ptr @_ZL8bACFinit, align 1
  ret ptr %6
}